target datalayout = "e-m:e-p270:32:32-p271:32:32-p272:64:64-i64:64-i128:128-f80:128-n8:16:32:64-S128"
target triple = "x86_64-pc-linux-gnu"

%struct.Tru_Man_t_ = type { i32, i32, i32, i32, ptr, ptr, ptr, [16 x i32], i32 }
%struct.Vec_Set_t_ = type { i32, i32, i32, i32, i32, i32, ptr }

; Function Attrs: inlinehint nounwind uwtable
define internal void @Vec_SetWriteLimit(ptr noundef %0, i32 noundef %1) #2 {
  %3 = alloca ptr, align 8
  %4 = alloca i32, align 4
  store ptr %0, ptr %3, align 8, !tbaa !8
  store i32 %1, ptr %4, align 4, !tbaa !18
  %5 = load i32, ptr %4, align 4, !tbaa !18
  %6 = sext i32 %5 to i64
  %7 = load ptr, ptr %3, align 8, !tbaa !8
  %8 = getelementptr inbounds i64, ptr %7, i64 0
  store i64 %6, ptr %8, align 8, !tbaa !23
  ret void
}

; Function Attrs: inlinehint nounwind uwtable
define internal void @Vec_SetAlloc_(ptr noundef %0, i32 noundef %1) #2 {
  %3 = alloca ptr, align 8
  %4 = alloca i32, align 4
  store ptr %0, ptr %3, align 8, !tbaa !37
  store i32 %1, ptr %4, align 4, !tbaa !18
  %5 = load ptr, ptr %3, align 8, !tbaa !37
  call void @llvm.memset.p0.i64(ptr align 8 %5, i8 0, i64 32, i1 false)
  %6 = load i32, ptr %4, align 4, !tbaa !18
  %7 = load ptr, ptr %3, align 8, !tbaa !37
  %8 = getelementptr inbounds nuw %struct.Vec_Set_t_, ptr %7, i32 0, i32 0
  store i32 %6, ptr %8, align 8, !tbaa !44
  %9 = load i32, ptr %4, align 4, !tbaa !18
  %10 = shl i32 1, %9
  %11 = sub nsw i32 %10, 1
  %12 = load ptr, ptr %3, align 8, !tbaa !37
  %13 = getelementptr inbounds nuw %struct.Vec_Set_t_, ptr %12, i32 0, i32 1
  store i32 %11, ptr %13, align 4, !tbaa !52
  %14 = load ptr, ptr %3, align 8, !tbaa !37
  %15 = getelementptr inbounds nuw %struct.Vec_Set_t_, ptr %14, i32 0, i32 5
  store i32 256, ptr %15, align 4, !tbaa !45
  %16 = load ptr, ptr %3, align 8, !tbaa !37
  %17 = getelementptr inbounds nuw %struct.Vec_Set_t_, ptr %16, i32 0, i32 5
  %18 = load i32, ptr %17, align 4, !tbaa !45
  %19 = sext i32 %18 to i64
  %20 = call noalias ptr @calloc(i64 noundef %19, i64 noundef 8) #11
  %21 = load ptr, ptr %3, align 8, !tbaa !37
  %22 = getelementptr inbounds nuw %struct.Vec_Set_t_, ptr %21, i32 0, i32 6
  store ptr %20, ptr %22, align 8, !tbaa !42
  %23 = load ptr, ptr %3, align 8, !tbaa !37
  %24 = getelementptr inbounds nuw %struct.Vec_Set_t_, ptr %23, i32 0, i32 0
  %25 = load i32, ptr %24, align 8, !tbaa !44
  %26 = zext i32 %25 to i64
  %27 = shl i64 1, %26
  %28 = trunc i64 %27 to i32
  %29 = sext i32 %28 to i64
  %30 = mul i64 8, %29
  %31 = call noalias ptr @malloc(i64 noundef %30) #13
  %32 = load ptr, ptr %3, align 8, !tbaa !37
  %33 = getelementptr inbounds nuw %struct.Vec_Set_t_, ptr %32, i32 0, i32 6
  %34 = load ptr, ptr %33, align 8, !tbaa !42
  %35 = getelementptr inbounds ptr, ptr %34, i64 0
  store ptr %31, ptr %35, align 8, !tbaa !8
  %36 = load ptr, ptr %3, align 8, !tbaa !37
  %37 = getelementptr inbounds nuw %struct.Vec_Set_t_, ptr %36, i32 0, i32 6
  %38 = load ptr, ptr %37, align 8, !tbaa !42
  %39 = getelementptr inbounds ptr, ptr %38, i64 0
  %40 = load ptr, ptr %39, align 8, !tbaa !8
  %41 = getelementptr inbounds i64, ptr %40, i64 0
  store i64 -1, ptr %41, align 8, !tbaa !23
  %42 = load ptr, ptr %3, align 8, !tbaa !37
  %43 = getelementptr inbounds nuw %struct.Vec_Set_t_, ptr %42, i32 0, i32 6
  %44 = load ptr, ptr %43, align 8, !tbaa !42
  %45 = getelementptr inbounds ptr, ptr %44, i64 0
  %46 = load ptr, ptr %45, align 8, !tbaa !8
  %47 = getelementptr inbounds i64, ptr %46, i64 1
  store i64 -1, ptr %47, align 8, !tbaa !23
  %48 = load ptr, ptr %3, align 8, !tbaa !37
  %49 = getelementptr inbounds nuw %struct.Vec_Set_t_, ptr %48, i32 0, i32 6
  %50 = load ptr, ptr %49, align 8, !tbaa !42
  %51 = getelementptr inbounds ptr, ptr %50, i64 0
  %52 = load ptr, ptr %51, align 8, !tbaa !8
  call void @Vec_SetWriteLimit(ptr noundef %52, i32 noundef 2)
  ret void
}

; Function Attrs: inlinehint nounwind uwtable
define internal ptr @Tru_ManClear(ptr noundef %0, i32 noundef %1) #2 {
  %3 = alloca ptr, align 8
  %4 = alloca i32, align 4
  %5 = alloca i32, align 4
  store ptr %0, ptr %3, align 8, !tbaa !8
  store i32 %1, ptr %4, align 4, !tbaa !18
  call void @llvm.lifetime.start.p0(i64 4, ptr %5) #10
  store i32 0, ptr %5, align 4, !tbaa !18
  br label %6

6:                                                ; preds = %15, %2
  %7 = load i32, ptr %5, align 4, !tbaa !18
  %8 = load i32, ptr %4, align 4, !tbaa !18
  %9 = icmp slt i32 %7, %8
  br i1 %9, label %10, label %18

10:                                               ; preds = %6
  %11 = load ptr, ptr %3, align 8, !tbaa !8
  %12 = load i32, ptr %5, align 4, !tbaa !18
  %13 = sext i32 %12 to i64
  %14 = getelementptr inbounds i64, ptr %11, i64 %13
  store i64 0, ptr %14, align 8, !tbaa !23
  br label %15

15:                                               ; preds = %10
  %16 = load i32, ptr %5, align 4, !tbaa !18
  %17 = add nsw i32 %16, 1
  store i32 %17, ptr %5, align 4, !tbaa !18
  br label %6, !llvm.loop !51

18:                                               ; preds = %6
  %19 = load ptr, ptr %3, align 8, !tbaa !8
  call void @llvm.lifetime.end.p0(i64 4, ptr %5) #10
  ret ptr %19
}

; Function Attrs: inlinehint nounwind uwtable
define internal ptr @Vec_SetAlloc(i32 noundef %0) #2 {
  %2 = alloca i32, align 4
  %3 = alloca ptr, align 8
  store i32 %0, ptr %2, align 4, !tbaa !18
  call void @llvm.lifetime.start.p0(i64 8, ptr %3) #10
  %4 = call noalias ptr @calloc(i64 noundef 1, i64 noundef 32) #11
  store ptr %4, ptr %3, align 8, !tbaa !37
  %5 = load ptr, ptr %3, align 8, !tbaa !37
  %6 = load i32, ptr %2, align 4, !tbaa !18
  call void @Vec_SetAlloc_(ptr noundef %5, i32 noundef %6)
  %7 = load ptr, ptr %3, align 8, !tbaa !37
  call void @llvm.lifetime.end.p0(i64 8, ptr %3) #10
  ret ptr %7
}

; Function Attrs: nounwind uwtable
define ptr @Tru_ManAlloc(i32 noundef %0) #0 {
  %2 = alloca i32, align 4
  %3 = alloca [6 x i64], align 16
  %4 = alloca ptr, align 8
  %5 = alloca i32, align 4
  %6 = alloca i32, align 4
  store i32 %0, ptr %2, align 4, !tbaa !18
  call void @llvm.lifetime.start.p0(i64 48, ptr %3) #10
  call void @llvm.memset.p0.i64(ptr align 16 %3, i8 0, i64 48, i1 false)
  %7 = getelementptr inbounds [6 x i64], ptr %3, i32 0, i32 0
  store i64 -6148914691236517206, ptr %7, align 16
  %8 = getelementptr inbounds [6 x i64], ptr %3, i32 0, i32 1
  store i64 -3689348814741910324, ptr %8, align 8
  %9 = getelementptr inbounds [6 x i64], ptr %3, i32 0, i32 2
  store i64 -1085102592571150096, ptr %9, align 16
  %10 = getelementptr inbounds [6 x i64], ptr %3, i32 0, i32 3
  store i64 -71777214294589696, ptr %10, align 8
  %11 = getelementptr inbounds [6 x i64], ptr %3, i32 0, i32 4
  store i64 -281470681808896, ptr %11, align 16
  %12 = getelementptr inbounds [6 x i64], ptr %3, i32 0, i32 5
  store i64 -4294967296, ptr %12, align 8
  call void @llvm.lifetime.start.p0(i64 8, ptr %4) #10
  call void @llvm.lifetime.start.p0(i64 4, ptr %5) #10
  call void @llvm.lifetime.start.p0(i64 4, ptr %6) #10
  %13 = call noalias ptr @calloc(i64 noundef 1, i64 noundef 112) #11
  store ptr %13, ptr %4, align 8, !tbaa !3
  %14 = load i32, ptr %2, align 4, !tbaa !18
  %15 = load ptr, ptr %4, align 8, !tbaa !3
  %16 = getelementptr inbounds nuw %struct.Tru_Man_t_, ptr %15, i32 0, i32 0
  store i32 %14, ptr %16, align 8, !tbaa !47
  %17 = load i32, ptr %2, align 4, !tbaa !18
  %18 = icmp slt i32 %17, 6
  br i1 %18, label %19, label %20

19:                                               ; preds = %1
  br label %24

20:                                               ; preds = %1
  %21 = load i32, ptr %2, align 4, !tbaa !18
  %22 = sub nsw i32 %21, 6
  %23 = shl i32 1, %22
  br label %24

24:                                               ; preds = %20, %19
  %25 = phi i32 [ 1, %19 ], [ %23, %20 ]
  %26 = load ptr, ptr %4, align 8, !tbaa !3
  %27 = getelementptr inbounds nuw %struct.Tru_Man_t_, ptr %26, i32 0, i32 1
  store i32 %25, ptr %27, align 4, !tbaa !15
  %28 = load ptr, ptr %4, align 8, !tbaa !3
  %29 = getelementptr inbounds nuw %struct.Tru_Man_t_, ptr %28, i32 0, i32 1
  %30 = load i32, ptr %29, align 4, !tbaa !15
  %31 = sext i32 %30 to i64
  %32 = mul i64 %31, 8
  %33 = add i64 8, %32
  %34 = udiv i64 %33, 4
  %35 = trunc i64 %34 to i32
  %36 = load ptr, ptr %4, align 8, !tbaa !3
  %37 = getelementptr inbounds nuw %struct.Tru_Man_t_, ptr %36, i32 0, i32 2
  store i32 %35, ptr %37, align 8, !tbaa !34
  %38 = load ptr, ptr %4, align 8, !tbaa !3
  %39 = getelementptr inbounds nuw %struct.Tru_Man_t_, ptr %38, i32 0, i32 3
  store i32 8147, ptr %39, align 4, !tbaa !16
  %40 = load ptr, ptr %4, align 8, !tbaa !3
  %41 = getelementptr inbounds nuw %struct.Tru_Man_t_, ptr %40, i32 0, i32 3
  %42 = load i32, ptr %41, align 4, !tbaa !16
  %43 = sext i32 %42 to i64
  %44 = call noalias ptr @calloc(i64 noundef %43, i64 noundef 4) #11
  %45 = load ptr, ptr %4, align 8, !tbaa !3
  %46 = getelementptr inbounds nuw %struct.Tru_Man_t_, ptr %45, i32 0, i32 4
  store ptr %44, ptr %46, align 8, !tbaa !10
  %47 = call ptr @Vec_SetAlloc(i32 noundef 16)
  %48 = load ptr, ptr %4, align 8, !tbaa !3
  %49 = getelementptr inbounds nuw %struct.Tru_Man_t_, ptr %48, i32 0, i32 5
  store ptr %47, ptr %49, align 8, !tbaa !26
  %50 = load ptr, ptr %4, align 8, !tbaa !3
  %51 = getelementptr inbounds nuw %struct.Tru_Man_t_, ptr %50, i32 0, i32 1
  %52 = load i32, ptr %51, align 4, !tbaa !15
  %53 = sext i32 %52 to i64
  %54 = mul i64 8, %53
  %55 = call noalias ptr @malloc(i64 noundef %54) #13
  %56 = load ptr, ptr %4, align 8, !tbaa !3
  %57 = getelementptr inbounds nuw %struct.Tru_Man_t_, ptr %56, i32 0, i32 6
  store ptr %55, ptr %57, align 8, !tbaa !48
  store i32 0, ptr %5, align 4, !tbaa !18
  br label %58

58:                                               ; preds = %120, %24
  %59 = load i32, ptr %5, align 4, !tbaa !18
  %60 = load i32, ptr %2, align 4, !tbaa !18
  %61 = icmp slt i32 %59, %60
  br i1 %61, label %62, label %123

62:                                               ; preds = %58
  store i32 0, ptr %6, align 4, !tbaa !18
  br label %63

63:                                               ; preds = %106, %62
  %64 = load i32, ptr %6, align 4, !tbaa !18
  %65 = load ptr, ptr %4, align 8, !tbaa !3
  %66 = getelementptr inbounds nuw %struct.Tru_Man_t_, ptr %65, i32 0, i32 1
  %67 = load i32, ptr %66, align 4, !tbaa !15
  %68 = icmp slt i32 %64, %67
  br i1 %68, label %69, label %109

69:                                               ; preds = %63
  %70 = load i32, ptr %5, align 4, !tbaa !18
  %71 = icmp slt i32 %70, 6
  br i1 %71, label %72, label %83

72:                                               ; preds = %69
  %73 = load i32, ptr %5, align 4, !tbaa !18
  %74 = sext i32 %73 to i64
  %75 = getelementptr inbounds [6 x i64], ptr %3, i64 0, i64 %74
  %76 = load i64, ptr %75, align 8, !tbaa !23
  %77 = load ptr, ptr %4, align 8, !tbaa !3
  %78 = getelementptr inbounds nuw %struct.Tru_Man_t_, ptr %77, i32 0, i32 6
  %79 = load ptr, ptr %78, align 8, !tbaa !48
  %80 = load i32, ptr %6, align 4, !tbaa !18
  %81 = sext i32 %80 to i64
  %82 = getelementptr inbounds i64, ptr %79, i64 %81
  store i64 %76, ptr %82, align 8, !tbaa !23
  br label %105

83:                                               ; preds = %69
  %84 = load i32, ptr %6, align 4, !tbaa !18
  %85 = load i32, ptr %5, align 4, !tbaa !18
  %86 = sub nsw i32 %85, 6
  %87 = shl i32 1, %86
  %88 = and i32 %84, %87
  %89 = icmp ne i32 %88, 0
  br i1 %89, label %90, label %97

90:                                               ; preds = %83
  %91 = load ptr, ptr %4, align 8, !tbaa !3
  %92 = getelementptr inbounds nuw %struct.Tru_Man_t_, ptr %91, i32 0, i32 6
  %93 = load ptr, ptr %92, align 8, !tbaa !48
  %94 = load i32, ptr %6, align 4, !tbaa !18
  %95 = sext i32 %94 to i64
  %96 = getelementptr inbounds i64, ptr %93, i64 %95
  store i64 -1, ptr %96, align 8, !tbaa !23
  br label %104

97:                                               ; preds = %83
  %98 = load ptr, ptr %4, align 8, !tbaa !3
  %99 = getelementptr inbounds nuw %struct.Tru_Man_t_, ptr %98, i32 0, i32 6
  %100 = load ptr, ptr %99, align 8, !tbaa !48
  %101 = load i32, ptr %6, align 4, !tbaa !18
  %102 = sext i32 %101 to i64
  %103 = getelementptr inbounds i64, ptr %100, i64 %102
  store i64 0, ptr %103, align 8, !tbaa !23
  br label %104

104:                                              ; preds = %97, %90
  br label %105

105:                                              ; preds = %104, %72
  br label %106

106:                                              ; preds = %105
  %107 = load i32, ptr %6, align 4, !tbaa !18
  %108 = add nsw i32 %107, 1
  store i32 %108, ptr %6, align 4, !tbaa !18
  br label %63, !llvm.loop !49

109:                                              ; preds = %63
  %110 = load ptr, ptr %4, align 8, !tbaa !3
  %111 = load ptr, ptr %4, align 8, !tbaa !3
  %112 = getelementptr inbounds nuw %struct.Tru_Man_t_, ptr %111, i32 0, i32 6
  %113 = load ptr, ptr %112, align 8, !tbaa !48
  %114 = call i32 @Tru_ManInsert(ptr noundef %110, ptr noundef %113)
  %115 = load ptr, ptr %4, align 8, !tbaa !3
  %116 = getelementptr inbounds nuw %struct.Tru_Man_t_, ptr %115, i32 0, i32 7
  %117 = load i32, ptr %5, align 4, !tbaa !18
  %118 = sext i32 %117 to i64
  %119 = getelementptr inbounds [16 x i32], ptr %116, i64 0, i64 %118
  store i32 %114, ptr %119, align 4, !tbaa !18
  br label %120

120:                                              ; preds = %109
  %121 = load i32, ptr %5, align 4, !tbaa !18
  %122 = add nsw i32 %121, 1
  store i32 %122, ptr %5, align 4, !tbaa !18
  br label %58, !llvm.loop !50

123:                                              ; preds = %58
  %124 = load ptr, ptr %4, align 8, !tbaa !3
  %125 = getelementptr inbounds nuw %struct.Tru_Man_t_, ptr %124, i32 0, i32 6
  %126 = load ptr, ptr %125, align 8, !tbaa !48
  %127 = load ptr, ptr %4, align 8, !tbaa !3
  %128 = getelementptr inbounds nuw %struct.Tru_Man_t_, ptr %127, i32 0, i32 1
  %129 = load i32, ptr %128, align 4, !tbaa !15
  %130 = call ptr @Tru_ManClear(ptr noundef %126, i32 noundef %129)
  %131 = load ptr, ptr %4, align 8, !tbaa !3
  call void @llvm.lifetime.end.p0(i64 4, ptr %6) #10
  call void @llvm.lifetime.end.p0(i64 4, ptr %5) #10
  call void @llvm.lifetime.end.p0(i64 8, ptr %4) #10
  call void @llvm.lifetime.end.p0(i64 48, ptr %3) #10
  ret ptr %131
}