; Function Attrs: nounwind uwtable
define noalias noundef ptr @Tru_ManAlloc(i32 noundef %0) local_unnamed_addr #2 {
  %2 = alloca [6 x i64], align 16
  call void @llvm.lifetime.start.p0(i64 48, ptr nonnull %2) #11
  store i64 -6148914691236517206, ptr %2, align 16
  %3 = getelementptr inbounds nuw i8, ptr %2, i64 8
  store i64 -3689348814741910324, ptr %3, align 8
  %4 = getelementptr inbounds nuw i8, ptr %2, i64 16
  store i64 -1085102592571150096, ptr %4, align 16
  %5 = getelementptr inbounds nuw i8, ptr %2, i64 24
  store i64 -71777214294589696, ptr %5, align 8
  %6 = getelementptr inbounds nuw i8, ptr %2, i64 32
  store i64 -281470681808896, ptr %6, align 16
  %7 = getelementptr inbounds nuw i8, ptr %2, i64 40
  store i64 -4294967296, ptr %7, align 8
  %8 = tail call noalias dereferenceable_or_null(112) ptr @calloc(i64 noundef 1, i64 noundef 112) #10
  store i32 %0, ptr %8, align 8, !tbaa !42
  %9 = icmp slt i32 %0, 6
  %10 = add nsw i32 %0, -6
  %11 = shl nuw i32 1, %10
  %12 = select i1 %9, i32 1, i32 %11
  %13 = getelementptr inbounds nuw i8, ptr %8, i64 4
  store i32 %12, ptr %13, align 4, !tbaa !12
  %14 = sext i32 %12 to i64
  %15 = shl nsw i64 %14, 3
  %16 = add nsw i64 %15, 8
  %17 = lshr exact i64 %16, 2
  %18 = trunc i64 %17 to i32
  %19 = getelementptr inbounds nuw i8, ptr %8, i64 8
  store i32 %18, ptr %19, align 8, !tbaa !38
  %20 = getelementptr inbounds nuw i8, ptr %8, i64 12
  store i32 8147, ptr %20, align 4, !tbaa !13
  %21 = tail call noalias dereferenceable_or_null(32588) ptr @calloc(i64 noundef 8147, i64 noundef 4) #10
  %22 = getelementptr inbounds nuw i8, ptr %8, i64 16
  store ptr %21, ptr %22, align 8, !tbaa !3
  %23 = tail call noalias dereferenceable_or_null(32) ptr @calloc(i64 noundef 1, i64 noundef 32) #10
  store i32 16, ptr %23, align 8, !tbaa !23
  %24 = getelementptr inbounds nuw i8, ptr %23, i64 4
  store i32 65535, ptr %24, align 4, !tbaa !25
  %25 = getelementptr inbounds nuw i8, ptr %23, i64 20
  store i32 256, ptr %25, align 4, !tbaa !40
  %26 = tail call noalias dereferenceable_or_null(2048) ptr @calloc(i64 noundef 256, i64 noundef 8) #10
  %27 = getelementptr inbounds nuw i8, ptr %23, i64 24
  store ptr %26, ptr %27, align 8, !tbaa !20
  %28 = tail call noalias dereferenceable_or_null(524288) ptr @malloc(i64 noundef 524288) #13
  store ptr %28, ptr %26, align 8, !tbaa !24
  %29 = getelementptr inbounds nuw i8, ptr %28, i64 8
  store i64 -1, ptr %29, align 8
  store i64 2, ptr %28, align 8, !tbaa !14
  %30 = getelementptr inbounds nuw i8, ptr %8, i64 24
  store ptr %23, ptr %30, align 8, !tbaa !19
  %31 = tail call noalias ptr @malloc(i64 noundef %15) #13
  %32 = getelementptr inbounds nuw i8, ptr %8, i64 32
  store ptr %31, ptr %32, align 8, !tbaa !43
  %33 = icmp sgt i32 %0, 0
  br i1 %33, label %.preheader.lr.ph, label %._crit_edge38

.preheader.lr.ph:                                 ; preds = %1
  %34 = getelementptr inbounds nuw i8, ptr %8, i64 40
  %wide.trip.count49 = zext nneg i32 %0 to i64
  br label %.preheader

.preheader:                                       ; preds = %.preheader.lr.ph, %._crit_edge
  %indvars.iv46 = phi i64 [ 0, %.preheader.lr.ph ], [ %indvars.iv.next47, %._crit_edge ]
  %35 = load i32, ptr %13, align 4, !tbaa !12
  %36 = icmp sgt i32 %35, 0
  br i1 %36, label %.lr.ph, label %.preheader.._crit_edge_crit_edge

.preheader.._crit_edge_crit_edge:                 ; preds = %.preheader
  %.pre = load ptr, ptr %32, align 8, !tbaa !43
  br label %._crit_edge

.lr.ph:                                           ; preds = %.preheader
  %37 = icmp samesign ult i64 %indvars.iv46, 6
  %38 = trunc i64 %indvars.iv46 to i32
  %39 = add i32 %38, -6
  %40 = shl nuw i32 1, %39
  br i1 %37, label %.lr.ph.split.us, label %.lr.ph.split.preheader

.lr.ph.split.preheader:                           ; preds = %.lr.ph
  %wide.trip.count = zext nneg i32 %35 to i64
  %41 = load ptr, ptr %32, align 8, !tbaa !43
  br label %.lr.ph.split

.lr.ph.split.us:                                  ; preds = %.lr.ph
  %42 = getelementptr inbounds nuw [6 x i64], ptr %2, i64 0, i64 %indvars.iv46
  %43 = load i64, ptr %42, align 8, !tbaa !14
  %44 = load ptr, ptr %32, align 8, !tbaa !43
  %wide.trip.count44 = zext nneg i32 %35 to i64
  br label %45

45:                                               ; preds = %45, %.lr.ph.split.us
  %indvars.iv41 = phi i64 [ %indvars.iv.next42, %45 ], [ 0, %.lr.ph.split.us ]
  %46 = getelementptr inbounds nuw i64, ptr %44, i64 %indvars.iv41
  store i64 %43, ptr %46, align 8, !tbaa !14
  %indvars.iv.next42 = add nuw nsw i64 %indvars.iv41, 1
  %exitcond45.not = icmp eq i64 %indvars.iv.next42, %wide.trip.count44
  br i1 %exitcond45.not, label %._crit_edge, label %45, !llvm.loop !44

.lr.ph.split:                                     ; preds = %.lr.ph.split.preheader, %.lr.ph.split
  %indvars.iv = phi i64 [ 0, %.lr.ph.split.preheader ], [ %indvars.iv.next, %.lr.ph.split ]
  %47 = trunc nuw nsw i64 %indvars.iv to i32
  %48 = and i32 %40, %47
  %.not = icmp ne i32 %48, 0
  %49 = getelementptr inbounds nuw i64, ptr %41, i64 %indvars.iv
  %. = sext i1 %.not to i64
  store i64 %., ptr %49, align 8, !tbaa !14
  %indvars.iv.next = add nuw nsw i64 %indvars.iv, 1
  %exitcond.not = icmp eq i64 %indvars.iv.next, %wide.trip.count
  br i1 %exitcond.not, label %._crit_edge, label %.lr.ph.split, !llvm.loop !44

._crit_edge:                                      ; preds = %.lr.ph.split, %45, %.preheader.._crit_edge_crit_edge
  %50 = phi ptr [ %.pre, %.preheader.._crit_edge_crit_edge ], [ %44, %45 ], [ %41, %.lr.ph.split ]
  %51 = tail call i32 @Tru_ManInsert(ptr noundef nonnull %8, ptr noundef %50)
  %52 = getelementptr inbounds nuw [16 x i32], ptr %34, i64 0, i64 %indvars.iv46
  store i32 %51, ptr %52, align 4, !tbaa !16
  %indvars.iv.next47 = add nuw nsw i64 %indvars.iv46, 1
  %exitcond50.not = icmp eq i64 %indvars.iv.next47, %wide.trip.count49
  br i1 %exitcond50.not, label %._crit_edge38.loopexit, label %.preheader, !llvm.loop !45

._crit_edge38.loopexit:                           ; preds = %._crit_edge
  %.pre51 = load i32, ptr %13, align 4, !tbaa !12
  br label %._crit_edge38

._crit_edge38:                                    ; preds = %._crit_edge38.loopexit, %1
  %53 = phi i32 [ %.pre51, %._crit_edge38.loopexit ], [ %12, %1 ]
  %54 = icmp sgt i32 %53, 0
  br i1 %54, label %.lr.ph.preheader.i, label %Tru_ManClear.exit

.lr.ph.preheader.i:                               ; preds = %._crit_edge38
  %55 = load ptr, ptr %32, align 8, !tbaa !43
  %56 = zext nneg i32 %53 to i64
  %57 = shl nuw nsw i64 %56, 3
  tail call void @llvm.memset.p0.i64(ptr align 8 %55, i8 0, i64 %57, i1 false), !tbaa !14
  br label %Tru_ManClear.exit

Tru_ManClear.exit:                                ; preds = %._crit_edge38, %.lr.ph.preheader.i
  call void @llvm.lifetime.end.p0(i64 48, ptr nonnull %2) #11
  ret ptr %8
}